; ModuleID = '28/304.c'
source_filename = "28/304.c"
target datalayout = "e-m:e-p270:32:32-p271:32:32-p272:64:64-i64:64-f80:128-n8:16:32:64-S128"
target triple = "x86_64-pc-linux-gnu"

@.str = private unnamed_addr constant [4 x i8] c"%d,\00", align 1
@.str.1 = private unnamed_addr constant [3 x i8] c"%d\00", align 1

; Function Attrs: noinline nounwind uwtable
define dso_local void @main() #0 {
  %1 = alloca i32, align 4
  %2 = alloca i32, align 4
  %3 = alloca i32, align 4
  %4 = alloca [111 x i32], align 16
  %5 = alloca i32, align 4
  %6 = alloca i32, align 4
  %7 = alloca i32, align 4
  %8 = alloca i32, align 4
  %9 = alloca [1111 x i8], align 16
  store i32 0, i32* %7, align 4
  store i32 0, i32* %8, align 4
  %10 = getelementptr inbounds [1111 x i8], [1111 x i8]* %9, i64 0, i64 0
  %11 = call i32 (i8*, ...) bitcast (i32 (...)* @gets to i32 (i8*, ...)*)(i8* %10)
  %12 = getelementptr inbounds [1111 x i8], [1111 x i8]* %9, i64 0, i64 0
  %13 = call i64 @strlen(i8* %12) #3
  %14 = trunc i64 %13 to i32
  store i32 %14, i32* %6, align 4
  store i32 0, i32* %5, align 4
  br label %15

15:                                               ; preds = %76, %0
  %16 = load i32, i32* %5, align 4
  %17 = sext i32 %16 to i64
  %18 = getelementptr inbounds [111 x i32], [111 x i32]* %4, i64 0, i64 %17
  store i32 0, i32* %18, align 4
  %19 = load i32, i32* %8, align 4
  store i32 %19, i32* %3, align 4
  br label %20

20:                                               ; preds = %47, %15
  %21 = getelementptr inbounds [1111 x i8], [1111 x i8]* %9, i64 0, i64 0
  %22 = load i32, i32* %3, align 4
  %23 = sext i32 %22 to i64
  %24 = getelementptr inbounds i8, i8* %21, i64 %23
  %25 = load i8, i8* %24, align 1
  %26 = sext i8 %25 to i32
  %27 = icmp ne i32 %26, 32
  br i1 %27, label %28, label %36

28:                                               ; preds = %20
  %29 = getelementptr inbounds [1111 x i8], [1111 x i8]* %9, i64 0, i64 0
  %30 = load i32, i32* %3, align 4
  %31 = sext i32 %30 to i64
  %32 = getelementptr inbounds i8, i8* %29, i64 %31
  %33 = load i8, i8* %32, align 1
  %34 = sext i8 %33 to i32
  %35 = icmp ne i32 %34, 0
  br label %36

36:                                               ; preds = %28, %20
  %37 = phi i1 [ false, %20 ], [ %35, %28 ]
  br i1 %37, label %38, label %50

38:                                               ; preds = %36
  %39 = load i32, i32* %5, align 4
  %40 = sext i32 %39 to i64
  %41 = getelementptr inbounds [111 x i32], [111 x i32]* %4, i64 0, i64 %40
  %42 = load i32, i32* %41, align 4
  %43 = add nsw i32 %42, 1
  %44 = load i32, i32* %5, align 4
  %45 = sext i32 %44 to i64
  %46 = getelementptr inbounds [111 x i32], [111 x i32]* %4, i64 0, i64 %45
  store i32 %43, i32* %46, align 4
  br label %47

47:                                               ; preds = %38
  %48 = load i32, i32* %3, align 4
  %49 = add nsw i32 %48, 1
  store i32 %49, i32* %3, align 4
  br label %20

50:                                               ; preds = %36
  %51 = load i32, i32* %3, align 4
  store i32 %51, i32* %2, align 4
  store i32 0, i32* %7, align 4
  %52 = load i32, i32* %2, align 4
  store i32 %52, i32* %3, align 4
  br label %53

53:                                               ; preds = %64, %50
  %54 = getelementptr inbounds [1111 x i8], [1111 x i8]* %9, i64 0, i64 0
  %55 = load i32, i32* %3, align 4
  %56 = sext i32 %55 to i64
  %57 = getelementptr inbounds i8, i8* %54, i64 %56
  %58 = load i8, i8* %57, align 1
  %59 = sext i8 %58 to i32
  %60 = icmp eq i32 %59, 32
  br i1 %60, label %61, label %67

61:                                               ; preds = %53
  %62 = load i32, i32* %7, align 4
  %63 = add nsw i32 %62, 1
  store i32 %63, i32* %7, align 4
  br label %64

64:                                               ; preds = %61
  %65 = load i32, i32* %3, align 4
  %66 = add nsw i32 %65, 1
  store i32 %66, i32* %3, align 4
  br label %53

67:                                               ; preds = %53
  %68 = load i32, i32* %2, align 4
  %69 = load i32, i32* %7, align 4
  %70 = add nsw i32 %68, %69
  store i32 %70, i32* %8, align 4
  %71 = load i32, i32* %3, align 4
  %72 = load i32, i32* %6, align 4
  %73 = icmp eq i32 %71, %72
  br i1 %73, label %74, label %75

74:                                               ; preds = %67
  br label %79

75:                                               ; preds = %67
  br label %76

76:                                               ; preds = %75
  %77 = load i32, i32* %5, align 4
  %78 = add nsw i32 %77, 1
  store i32 %78, i32* %5, align 4
  br label %15

79:                                               ; preds = %74
  %80 = load i32, i32* %5, align 4
  store i32 %80, i32* %1, align 4
  store i32 0, i32* %5, align 4
  br label %81

81:                                               ; preds = %91, %79
  %82 = load i32, i32* %5, align 4
  %83 = load i32, i32* %1, align 4
  %84 = icmp slt i32 %82, %83
  br i1 %84, label %85, label %94

85:                                               ; preds = %81
  %86 = load i32, i32* %5, align 4
  %87 = sext i32 %86 to i64
  %88 = getelementptr inbounds [111 x i32], [111 x i32]* %4, i64 0, i64 %87
  %89 = load i32, i32* %88, align 4
  %90 = call i32 (i8*, ...) @printf(i8* getelementptr inbounds ([4 x i8], [4 x i8]* @.str, i64 0, i64 0), i32 %89)
  br label %91

91:                                               ; preds = %85
  %92 = load i32, i32* %5, align 4
  %93 = add nsw i32 %92, 1
  store i32 %93, i32* %5, align 4
  br label %81

94:                                               ; preds = %81
  %95 = load i32, i32* %1, align 4
  %96 = sext i32 %95 to i64
  %97 = getelementptr inbounds [111 x i32], [111 x i32]* %4, i64 0, i64 %96
  %98 = load i32, i32* %97, align 4
  %99 = call i32 (i8*, ...) @printf(i8* getelementptr inbounds ([3 x i8], [3 x i8]* @.str.1, i64 0, i64 0), i32 %98)
  ret void
}

declare dso_local i32 @gets(...) #1

; Function Attrs: nounwind readonly
declare dso_local i64 @strlen(i8*) #2

declare dso_local i32 @printf(i8*, ...) #1


!llvm.module.flags = !{!0}
!llvm.ident = !{!1}

!0 = !{i32 1, !"wchar_size", i32 4}
!1 = !{!"clang version 10.0.0-4ubuntu1 "}
